; Function Attrs: nounwind uwtable
define internal void @PredictorSub10_SSE2(ptr noundef %0, ptr noundef %1, i32 noundef %2, ptr noalias noundef %3) #1 {
  %.not47 = icmp slt i32 %2, 4
  br i1 %.not47, label %._crit_edge, label %.lr.ph.preheader

.lr.ph.preheader:                                 ; preds = %4
  %5 = zext nneg i32 %2 to i64
  br label %.lr.ph

.lr.ph:                                           ; preds = %.lr.ph.preheader, %.lr.ph
  %indvars.iv49 = phi i64 [ 0, %.lr.ph.preheader ], [ %indvars.iv.next50, %.lr.ph ]
  %indvars.iv = phi i64 [ 4, %.lr.ph.preheader ], [ %indvars.iv.next, %.lr.ph ]
  %6 = add nsw i64 %indvars.iv49, -1
  %7 = getelementptr inbounds i32, ptr %0, i64 %6
  %8 = load <2 x i64>, ptr %7, align 1, !tbaa !7
  %9 = getelementptr inbounds nuw i32, ptr %0, i64 %indvars.iv49
  %10 = load <16 x i8>, ptr %9, align 1, !tbaa !7
  %11 = getelementptr inbounds i32, ptr %1, i64 %6
  %12 = load <2 x i64>, ptr %11, align 1, !tbaa !7
  %13 = getelementptr inbounds nuw i32, ptr %1, i64 %indvars.iv49
  %14 = load <2 x i64>, ptr %13, align 1, !tbaa !7
  %15 = or disjoint i64 %indvars.iv49, 1
  %16 = getelementptr inbounds nuw i32, ptr %1, i64 %15
  %17 = load <2 x i64>, ptr %16, align 1, !tbaa !7
  %18 = bitcast <2 x i64> %14 to <16 x i8>
  %19 = bitcast <2 x i64> %17 to <16 x i8>
  %20 = tail call <16 x i8> @llvm.x86.sse2.pavg.b(<16 x i8> %18, <16 x i8> %19)
  %21 = xor <2 x i64> %17, %14
  %22 = bitcast <2 x i64> %21 to <16 x i8>
  %23 = and <16 x i8> %22, splat (i8 1)
  %24 = sub <16 x i8> %20, %23
  %25 = bitcast <2 x i64> %8 to <16 x i8>
  %26 = bitcast <2 x i64> %12 to <16 x i8>
  %27 = tail call <16 x i8> @llvm.x86.sse2.pavg.b(<16 x i8> %25, <16 x i8> %26)
  %28 = xor <2 x i64> %12, %8
  %29 = bitcast <2 x i64> %28 to <16 x i8>
  %30 = and <16 x i8> %29, splat (i8 1)
  %31 = sub <16 x i8> %27, %30
  %32 = tail call <16 x i8> @llvm.x86.sse2.pavg.b(<16 x i8> %24, <16 x i8> %31)
  %33 = xor <16 x i8> %24, %31
  %34 = and <16 x i8> %33, splat (i8 1)
  %.neg = sub <16 x i8> %10, %32
  %35 = add <16 x i8> %.neg, %34
  %36 = getelementptr inbounds nuw i32, ptr %3, i64 %indvars.iv49
  store <16 x i8> %35, ptr %36, align 1, !tbaa !7
  %indvars.iv.next = add nuw nsw i64 %indvars.iv, 4
  %.not = icmp samesign ugt i64 %indvars.iv.next, %5
  %indvars.iv.next50 = add nuw nsw i64 %indvars.iv49, 4
  br i1 %.not, label %._crit_edge.loopexit, label %.lr.ph, !llvm.loop !47

._crit_edge.loopexit:                             ; preds = %.lr.ph
  %37 = trunc nuw nsw i64 %indvars.iv to i32
  br label %._crit_edge

._crit_edge:                                      ; preds = %._crit_edge.loopexit, %4
  %.0.lcssa = phi i32 [ 0, %4 ], [ %37, %._crit_edge.loopexit ]
  %.not28 = icmp eq i32 %.0.lcssa, %2
  br i1 %.not28, label %45, label %38

38:                                               ; preds = %._crit_edge
  %39 = load ptr, ptr getelementptr inbounds nuw (i8, ptr @VP8LPredictorsSub_C, i64 80), align 16, !tbaa !3
  %40 = zext nneg i32 %.0.lcssa to i64
  %41 = getelementptr inbounds nuw i32, ptr %0, i64 %40
  %42 = getelementptr inbounds nuw i32, ptr %1, i64 %40
  %43 = sub nsw i32 %2, %.0.lcssa
  %44 = getelementptr inbounds nuw i32, ptr %3, i64 %40
  tail call void %39(ptr noundef %41, ptr noundef %42, i32 noundef %43, ptr noundef %44) #8
  br label %45

45:                                               ; preds = %38, %._crit_edge
  ret void
}